; ModuleID = '17/295.c'
source_filename = "17/295.c"
target datalayout = "e-m:e-p270:32:32-p271:32:32-p272:64:64-i64:64-f80:128-n8:16:32:64-S128"
target triple = "x86_64-pc-linux-gnu"

@.str = private unnamed_addr constant [2 x i8] c" \00", align 1
@.str.1 = private unnamed_addr constant [2 x i8] c"$\00", align 1
@.str.2 = private unnamed_addr constant [2 x i8] c"?\00", align 1
@.str.3 = private unnamed_addr constant [2 x i8] c"\0A\00", align 1

; Function Attrs: noinline nounwind uwtable
define dso_local void @pipei(i8* %0, i32 %1) #0 {
  %3 = alloca i8*, align 8
  %4 = alloca i32, align 4
  %5 = alloca i32, align 4
  %6 = alloca i32, align 4
  %7 = alloca i32, align 4
  store i8* %0, i8** %3, align 8
  store i32 %1, i32* %4, align 4
  br label %8

8:                                                ; preds = %85, %2
  %9 = load i32, i32* %7, align 4
  %10 = icmp ne i32 %9, 0
  br i1 %10, label %11, label %86

11:                                               ; preds = %8
  store i32 0, i32* %7, align 4
  store i32 0, i32* %5, align 4
  br label %12

12:                                               ; preds = %82, %11
  %13 = load i32, i32* %5, align 4
  %14 = load i32, i32* %4, align 4
  %15 = icmp slt i32 %13, %14
  br i1 %15, label %16, label %85

16:                                               ; preds = %12
  %17 = load i8*, i8** %3, align 8
  %18 = load i32, i32* %5, align 4
  %19 = sext i32 %18 to i64
  %20 = getelementptr inbounds i8, i8* %17, i64 %19
  %21 = load i8, i8* %20, align 1
  %22 = sext i8 %21 to i32
  %23 = icmp ne i32 %22, 40
  br i1 %23, label %24, label %25

24:                                               ; preds = %16
  br label %82

25:                                               ; preds = %16
  %26 = load i32, i32* %5, align 4
  %27 = add nsw i32 %26, 1
  store i32 %27, i32* %6, align 4
  br label %28

28:                                               ; preds = %78, %25
  %29 = load i32, i32* %6, align 4
  %30 = load i32, i32* %4, align 4
  %31 = icmp slt i32 %29, %30
  br i1 %31, label %32, label %81

32:                                               ; preds = %28
  %33 = load i8*, i8** %3, align 8
  %34 = load i32, i32* %6, align 4
  %35 = sext i32 %34 to i64
  %36 = getelementptr inbounds i8, i8* %33, i64 %35
  %37 = load i8, i8* %36, align 1
  %38 = sext i8 %37 to i32
  %39 = icmp ne i32 %38, 40
  br i1 %39, label %40, label %49

40:                                               ; preds = %32
  %41 = load i8*, i8** %3, align 8
  %42 = load i32, i32* %6, align 4
  %43 = sext i32 %42 to i64
  %44 = getelementptr inbounds i8, i8* %41, i64 %43
  %45 = load i8, i8* %44, align 1
  %46 = sext i8 %45 to i32
  %47 = icmp ne i32 %46, 41
  br i1 %47, label %48, label %49

48:                                               ; preds = %40
  br label %78

49:                                               ; preds = %40, %32
  %50 = load i8*, i8** %3, align 8
  %51 = load i32, i32* %6, align 4
  %52 = sext i32 %51 to i64
  %53 = getelementptr inbounds i8, i8* %50, i64 %52
  %54 = load i8, i8* %53, align 1
  %55 = sext i8 %54 to i32
  %56 = icmp eq i32 %55, 40
  br i1 %56, label %57, label %58

57:                                               ; preds = %49
  br label %81

58:                                               ; preds = %49
  %59 = load i8*, i8** %3, align 8
  %60 = load i32, i32* %6, align 4
  %61 = sext i32 %60 to i64
  %62 = getelementptr inbounds i8, i8* %59, i64 %61
  %63 = load i8, i8* %62, align 1
  %64 = sext i8 %63 to i32
  %65 = icmp eq i32 %64, 41
  br i1 %65, label %66, label %77

66:                                               ; preds = %58
  %67 = load i32, i32* %7, align 4
  %68 = add nsw i32 %67, 1
  store i32 %68, i32* %7, align 4
  %69 = load i8*, i8** %3, align 8
  %70 = load i32, i32* %5, align 4
  %71 = sext i32 %70 to i64
  %72 = getelementptr inbounds i8, i8* %69, i64 %71
  store i8 32, i8* %72, align 1
  %73 = load i8*, i8** %3, align 8
  %74 = load i32, i32* %6, align 4
  %75 = sext i32 %74 to i64
  %76 = getelementptr inbounds i8, i8* %73, i64 %75
  store i8 32, i8* %76, align 1
  br label %81

77:                                               ; preds = %58
  br label %78

78:                                               ; preds = %77, %48
  %79 = load i32, i32* %6, align 4
  %80 = add nsw i32 %79, 1
  store i32 %80, i32* %6, align 4
  br label %28

81:                                               ; preds = %66, %57, %28
  br label %82

82:                                               ; preds = %81, %24
  %83 = load i32, i32* %5, align 4
  %84 = add nsw i32 %83, 1
  store i32 %84, i32* %5, align 4
  br label %12

85:                                               ; preds = %12
  br label %8

86:                                               ; preds = %8
  store i32 0, i32* %5, align 4
  br label %87

87:                                               ; preds = %123, %86
  %88 = load i32, i32* %5, align 4
  %89 = load i32, i32* %4, align 4
  %90 = icmp slt i32 %88, %89
  br i1 %90, label %91, label %126

91:                                               ; preds = %87
  %92 = load i8*, i8** %3, align 8
  %93 = load i32, i32* %5, align 4
  %94 = sext i32 %93 to i64
  %95 = getelementptr inbounds i8, i8* %92, i64 %94
  %96 = load i8, i8* %95, align 1
  %97 = sext i8 %96 to i32
  %98 = icmp ne i32 %97, 40
  br i1 %98, label %99, label %109

99:                                               ; preds = %91
  %100 = load i8*, i8** %3, align 8
  %101 = load i32, i32* %5, align 4
  %102 = sext i32 %101 to i64
  %103 = getelementptr inbounds i8, i8* %100, i64 %102
  %104 = load i8, i8* %103, align 1
  %105 = sext i8 %104 to i32
  %106 = icmp ne i32 %105, 41
  br i1 %106, label %107, label %109

107:                                              ; preds = %99
  %108 = call i32 (i8*, ...) @printf(i8* getelementptr inbounds ([2 x i8], [2 x i8]* @.str, i64 0, i64 0))
  br label %122

109:                                              ; preds = %99, %91
  %110 = load i8*, i8** %3, align 8
  %111 = load i32, i32* %5, align 4
  %112 = sext i32 %111 to i64
  %113 = getelementptr inbounds i8, i8* %110, i64 %112
  %114 = load i8, i8* %113, align 1
  %115 = sext i8 %114 to i32
  %116 = icmp eq i32 %115, 40
  br i1 %116, label %117, label %119

117:                                              ; preds = %109
  %118 = call i32 (i8*, ...) @printf(i8* getelementptr inbounds ([2 x i8], [2 x i8]* @.str.1, i64 0, i64 0))
  br label %121

119:                                              ; preds = %109
  %120 = call i32 (i8*, ...) @printf(i8* getelementptr inbounds ([2 x i8], [2 x i8]* @.str.2, i64 0, i64 0))
  br label %121

121:                                              ; preds = %119, %117
  br label %122

122:                                              ; preds = %121, %107
  br label %123

123:                                              ; preds = %122
  %124 = load i32, i32* %5, align 4
  %125 = add nsw i32 %124, 1
  store i32 %125, i32* %5, align 4
  br label %87

126:                                              ; preds = %87
  %127 = call i32 (i8*, ...) @printf(i8* getelementptr inbounds ([2 x i8], [2 x i8]* @.str.3, i64 0, i64 0))
  ret void
}

declare dso_local i32 @printf(i8*, ...) #1

; Function Attrs: noinline nounwind uwtable
define dso_local i32 @main() #0 {
  %1 = alloca i32, align 4
  %2 = alloca [101 x i8], align 16
  %3 = alloca i32, align 4
  %4 = alloca i32, align 4
  store i32 0, i32* %1, align 4
  br label %5

5:                                                ; preds = %32, %0
  %6 = getelementptr inbounds [101 x i8], [101 x i8]* %2, i64 0, i64 0
  %7 = call i32 (i8*, ...) bitcast (i32 (...)* @gets to i32 (i8*, ...)*)(i8* %6)
  %8 = getelementptr inbounds [101 x i8], [101 x i8]* %2, i64 0, i64 0
  %9 = load i8, i8* %8, align 16
  %10 = sext i8 %9 to i32
  %11 = icmp eq i32 %10, 0
  br i1 %11, label %12, label %13

12:                                               ; preds = %5
  br label %33

13:                                               ; preds = %5
  %14 = getelementptr inbounds [101 x i8], [101 x i8]* %2, i64 0, i64 0
  %15 = call i64 @strlen(i8* %14) #3
  %16 = trunc i64 %15 to i32
  store i32 %16, i32* %3, align 4
  %17 = getelementptr inbounds [101 x i8], [101 x i8]* %2, i64 0, i64 0
  %18 = call i32 @puts(i8* %17)
  %19 = getelementptr inbounds [101 x i8], [101 x i8]* %2, i64 0, i64 0
  %20 = load i32, i32* %3, align 4
  call void @pipei(i8* %19, i32 %20)
  store i32 0, i32* %4, align 4
  br label %21

21:                                               ; preds = %29, %13
  %22 = load i32, i32* %4, align 4
  %23 = load i32, i32* %3, align 4
  %24 = icmp slt i32 %22, %23
  br i1 %24, label %25, label %32

25:                                               ; preds = %21
  %26 = load i32, i32* %4, align 4
  %27 = sext i32 %26 to i64
  %28 = getelementptr inbounds [101 x i8], [101 x i8]* %2, i64 0, i64 %27
  store i8 0, i8* %28, align 1
  br label %29

29:                                               ; preds = %25
  %30 = load i32, i32* %4, align 4
  %31 = add nsw i32 %30, 1
  store i32 %31, i32* %4, align 4
  br label %21

32:                                               ; preds = %21
  br label %5

33:                                               ; preds = %12
  %34 = load i32, i32* %1, align 4
  ret i32 %34
}

declare dso_local i32 @gets(...) #1

; Function Attrs: nounwind readonly
declare dso_local i64 @strlen(i8*) #2

declare dso_local i32 @puts(i8*) #1


!llvm.module.flags = !{!0}
!llvm.ident = !{!1}

!0 = !{i32 1, !"wchar_size", i32 4}
!1 = !{!"clang version 10.0.0-4ubuntu1 "}
