; ModuleID = 'source-C-CXX/16/295.c'
source_filename = "source-C-CXX/16/295.c"
target datalayout = "e-m:e-p270:32:32-p271:32:32-p272:64:64-i64:64-f80:128-n8:16:32:64-S128"
target triple = "x86_64-pc-linux-gnu"

; Function Attrs: nofree nounwind sspstrong uwtable
define dso_local void @pipei(i8* nocapture %0, i32 %1) local_unnamed_addr #0 {
  %3 = icmp sgt i32 %1, 0
  br i1 %3, label %4, label %18

4:                                                ; preds = %2
  %5 = zext i32 %1 to i64
  br label %6

6:                                                ; preds = %4, %6
  %7 = phi i64 [ 0, %4 ], [ %16, %6 ]
  %8 = getelementptr inbounds i8, i8* %0, i64 %7
  %9 = load i8, i8* %8, align 1, !tbaa !5
  %10 = and i8 %9, -2
  %11 = icmp eq i8 %10, 40
  %12 = icmp eq i8 %9, 40
  %13 = select i1 %12, i32 36, i32 63
  %14 = select i1 %11, i32 %13, i32 32
  %15 = tail call i32 @putchar(i32 %14)
  %16 = add nuw nsw i64 %7, 1
  %17 = icmp eq i64 %16, %5
  br i1 %17, label %18, label %6, !llvm.loop !8

18:                                               ; preds = %6, %2
  %19 = tail call i32 @putchar(i32 10)
  ret void
}

; Function Attrs: argmemonly mustprogress nofree nosync nounwind willreturn
declare void @llvm.lifetime.start.p0i8(i64 immarg, i8* nocapture) #1

; Function Attrs: argmemonly mustprogress nofree nosync nounwind willreturn
declare void @llvm.lifetime.end.p0i8(i64 immarg, i8* nocapture) #1

; Function Attrs: nounwind sspstrong uwtable
define dso_local i32 @main() local_unnamed_addr #2 {
  %1 = alloca [101 x i8], align 16
  %2 = getelementptr inbounds [101 x i8], [101 x i8]* %1, i64 0, i64 0
  %3 = getelementptr inbounds [101 x i8], [101 x i8]* %1, i64 0, i64 0
  call void @llvm.lifetime.start.p0i8(i64 101, i8* nonnull %3) #8
  %4 = call i32 (i8*, ...) bitcast (i32 (...)* @gets to i32 (i8*, ...)*)(i8* nonnull %3) #8
  %5 = load i8, i8* %3, align 16, !tbaa !5
  %6 = icmp eq i8 %5, 0
  br i1 %6, label %36, label %11

7:                                                ; preds = %16, %34, %32
  %8 = call i32 (i8*, ...) bitcast (i32 (...)* @gets to i32 (i8*, ...)*)(i8* nonnull %3) #8
  %9 = load i8, i8* %3, align 16, !tbaa !5
  %10 = icmp eq i8 %9, 0
  br i1 %10, label %36, label %11

11:                                               ; preds = %0, %7
  %12 = call i64 @strlen(i8* noundef nonnull %3) #9
  %13 = trunc i64 %12 to i32
  %14 = call i32 @puts(i8* nonnull %3)
  %15 = icmp sgt i32 %13, 0
  br i1 %15, label %18, label %16

16:                                               ; preds = %11
  %17 = call i32 @putchar(i32 10) #8
  br label %7

18:                                               ; preds = %11
  %19 = and i64 %12, 4294967295
  br label %20

20:                                               ; preds = %20, %18
  %21 = phi i64 [ 0, %18 ], [ %30, %20 ]
  %22 = getelementptr inbounds [101 x i8], [101 x i8]* %1, i64 0, i64 %21
  %23 = load i8, i8* %22, align 1, !tbaa !5
  %24 = and i8 %23, -2
  %25 = icmp eq i8 %24, 40
  %26 = icmp eq i8 %23, 40
  %27 = select i1 %26, i32 36, i32 63
  %28 = select i1 %25, i32 %27, i32 32
  %29 = call i32 @putchar(i32 %28) #8
  %30 = add nuw nsw i64 %21, 1
  %31 = icmp eq i64 %30, %19
  br i1 %31, label %32, label %20, !llvm.loop !8

32:                                               ; preds = %20
  %33 = call i32 @putchar(i32 10) #8
  br i1 %15, label %34, label %7

34:                                               ; preds = %32
  %35 = and i64 %12, 4294967295
  call void @llvm.memset.p0i8.i64(i8* nonnull align 16 %2, i8 0, i64 %35, i1 false)
  br label %7

36:                                               ; preds = %7, %0
  call void @llvm.lifetime.end.p0i8(i64 101, i8* nonnull %3) #8
  ret i32 0
}

declare i32 @gets(...) local_unnamed_addr #3

; Function Attrs: argmemonly mustprogress nofree nounwind readonly willreturn
declare i64 @strlen(i8* nocapture) local_unnamed_addr #4

; Function Attrs: nofree nounwind
declare noundef i32 @puts(i8* nocapture noundef readonly) local_unnamed_addr #5

; Function Attrs: nofree nounwind
declare noundef i32 @putchar(i32 noundef) local_unnamed_addr #6

; Function Attrs: argmemonly nofree nounwind willreturn writeonly
declare void @llvm.memset.p0i8.i64(i8* nocapture writeonly, i8, i64, i1 immarg) #7


!llvm.module.flags = !{!0, !1, !2, !3}
!llvm.ident = !{!4}

!0 = !{i32 1, !"wchar_size", i32 4}
!1 = !{i32 7, !"PIC Level", i32 2}
!2 = !{i32 7, !"PIE Level", i32 2}
!3 = !{i32 7, !"uwtable", i32 1}
!4 = !{!"clang version 13.0.0"}
!5 = !{!6, !6, i64 0}
!6 = !{!"omnipotent char", !7, i64 0}
!7 = !{!"Simple C/C++ TBAA"}
!8 = distinct !{!8, !9}
!9 = !{!"llvm.loop.mustprogress"}
